; Function Attrs: mustprogress uwtable
define internal fastcc void @_ZN11flatbuffersL17AppendShortOptionERNSt7__cxx1118basic_stringstreamIcSt11char_traitsIcESaIcEEERKNS_11FlatCOptionE(ptr noundef nonnull align 8 dereferenceable(128) %0, ptr noundef nonnull readonly align 8 captures(none) dereferenceable(128) %1) unnamed_addr #0 {
  %3 = getelementptr inbounds nuw i8, ptr %1, i64 8
  %4 = load i64, ptr %3, align 8, !tbaa !31
  %5 = icmp eq i64 %4, 0
  br i1 %5, label %17, label %6

6:                                                ; preds = %2
  %7 = getelementptr inbounds nuw i8, ptr %0, i64 16
  %8 = tail call noundef nonnull align 8 dereferenceable(8) ptr @_ZSt16__ostream_insertIcSt11char_traitsIcEERSt13basic_ostreamIT_T0_ES6_PKS3_l(ptr noundef nonnull align 8 dereferenceable(8) %7, ptr noundef nonnull @.str.375, i64 noundef 1)
  %9 = load ptr, ptr %1, align 8, !tbaa !9
  %10 = load i64, ptr %3, align 8, !tbaa !31
  %11 = tail call noundef nonnull align 8 dereferenceable(8) ptr @_ZSt16__ostream_insertIcSt11char_traitsIcEERSt13basic_ostreamIT_T0_ES6_PKS3_l(ptr noundef nonnull align 8 dereferenceable(8) %7, ptr noundef %9, i64 noundef %10)
  %12 = getelementptr inbounds nuw i8, ptr %1, i64 40
  %13 = load i64, ptr %12, align 8, !tbaa !31
  %14 = icmp eq i64 %13, 0
  br i1 %14, label %17, label %15

15:                                               ; preds = %6
  %16 = tail call noundef nonnull align 8 dereferenceable(8) ptr @_ZSt16__ostream_insertIcSt11char_traitsIcEERSt13basic_ostreamIT_T0_ES6_PKS3_l(ptr noundef nonnull align 8 dereferenceable(8) %7, ptr noundef nonnull @.str.378, i64 noundef 1)
  br label %17

17:                                               ; preds = %6, %15, %2
  %18 = getelementptr inbounds nuw i8, ptr %1, i64 40
  %19 = load i64, ptr %18, align 8, !tbaa !31
  %20 = icmp eq i64 %19, 0
  br i1 %20, label %28, label %21

21:                                               ; preds = %17
  %22 = getelementptr inbounds nuw i8, ptr %1, i64 32
  %23 = getelementptr inbounds nuw i8, ptr %0, i64 16
  %24 = tail call noundef nonnull align 8 dereferenceable(8) ptr @_ZSt16__ostream_insertIcSt11char_traitsIcEERSt13basic_ostreamIT_T0_ES6_PKS3_l(ptr noundef nonnull align 8 dereferenceable(8) %23, ptr noundef nonnull @.str.264, i64 noundef 2)
  %25 = load ptr, ptr %22, align 8, !tbaa !9
  %26 = load i64, ptr %18, align 8, !tbaa !31
  %27 = tail call noundef nonnull align 8 dereferenceable(8) ptr @_ZSt16__ostream_insertIcSt11char_traitsIcEERSt13basic_ostreamIT_T0_ES6_PKS3_l(ptr noundef nonnull align 8 dereferenceable(8) %23, ptr noundef %25, i64 noundef %26)
  br label %28

28:                                               ; preds = %21, %17
  ret void
}